target datalayout = "e-m:e-p270:32:32-p271:32:32-p272:64:64-i64:64-i128:128-f80:128-n8:16:32:64-S128"
target triple = "x86_64-pc-linux-gnu"

%struct.packet_provider_data = type { ptr, ptr, ptr, ptr, ptr, ptr }
%struct.wtapng_iface_descriptions_s = type { ptr }
%struct._GArray = type { ptr, i32 }

@.str = private unnamed_addr constant [8 x i8] c"unknown\00", align 1

; Function Attrs: null_pointer_is_valid sspstrong uwtable
define hidden ptr @cap_file_provider_get_interface_name(ptr noundef %0, i32 noundef %1, i32 noundef %2) #0 {
  %4 = alloca ptr, align 8
  %5 = alloca ptr, align 8
  %6 = alloca i32, align 4
  %7 = alloca i32, align 4
  %8 = alloca ptr, align 8
  %9 = alloca ptr, align 8
  %10 = alloca ptr, align 8
  %11 = alloca i32, align 4
  %12 = alloca i32, align 4
  store ptr %0, ptr %5, align 8
  store i32 %1, ptr %6, align 4
  store i32 %2, ptr %7, align 4
  call void @llvm.lifetime.start.p0(i64 8, ptr %8) #4
  call void @llvm.lifetime.start.p0(i64 8, ptr %9) #4
  store ptr null, ptr %9, align 8
  call void @llvm.lifetime.start.p0(i64 8, ptr %10) #4
  %13 = load ptr, ptr %5, align 8
  %14 = getelementptr inbounds nuw %struct.packet_provider_data, ptr %13, i32 0, i32 0
  %15 = load ptr, ptr %14, align 8
  %16 = call ptr @wtap_file_get_idb_info(ptr noundef %15)
  store ptr %16, ptr %8, align 8
  call void @llvm.lifetime.start.p0(i64 4, ptr %11) #4
  %17 = load ptr, ptr %5, align 8
  %18 = getelementptr inbounds nuw %struct.packet_provider_data, ptr %17, i32 0, i32 0
  %19 = load ptr, ptr %18, align 8
  %20 = load i32, ptr %7, align 4
  %21 = load i32, ptr %6, align 4
  %22 = call i32 @wtap_file_get_shb_global_interface_id(ptr noundef %19, i32 noundef %20, i32 noundef %21)
  store i32 %22, ptr %11, align 4
  %23 = load i32, ptr %11, align 4
  %24 = load ptr, ptr %8, align 8
  %25 = getelementptr inbounds nuw %struct.wtapng_iface_descriptions_s, ptr %24, i32 0, i32 0
  %26 = load ptr, ptr %25, align 8
  %27 = getelementptr inbounds nuw %struct._GArray, ptr %26, i32 0, i32 1
  %28 = load i32, ptr %27, align 8
  %29 = icmp ult i32 %23, %28
  br i1 %29, label %30, label %40

30:                                               ; preds = %3
  %31 = load ptr, ptr %8, align 8
  %32 = getelementptr inbounds nuw %struct.wtapng_iface_descriptions_s, ptr %31, i32 0, i32 0
  %33 = load ptr, ptr %32, align 8
  %34 = getelementptr inbounds nuw %struct._GArray, ptr %33, i32 0, i32 0
  %35 = load ptr, ptr %34, align 8
  %36 = load i32, ptr %11, align 4
  %37 = zext i32 %36 to i64
  %38 = getelementptr ptr, ptr %35, i64 %37
  %39 = load ptr, ptr %38, align 8
  store ptr %39, ptr %9, align 8
  br label %40

40:                                               ; preds = %30, %3
  %41 = load ptr, ptr %8, align 8
  call void @g_free(ptr noundef %41)
  %42 = load ptr, ptr %9, align 8
  %43 = icmp ne ptr %42, null
  br i1 %43, label %44, label %63

44:                                               ; preds = %40
  %45 = load ptr, ptr %9, align 8
  %46 = call i32 @wtap_block_get_string_option_value(ptr noundef %45, i32 noundef 2, ptr noundef %10)
  %47 = icmp eq i32 %46, 0
  br i1 %47, label %48, label %50

48:                                               ; preds = %44
  %49 = load ptr, ptr %10, align 8
  store ptr %49, ptr %4, align 8
  store i32 1, ptr %12, align 4
  br label %64

50:                                               ; preds = %44
  %51 = load ptr, ptr %9, align 8
  %52 = call i32 @wtap_block_get_string_option_value(ptr noundef %51, i32 noundef 3, ptr noundef %10)
  %53 = icmp eq i32 %52, 0
  br i1 %53, label %54, label %56

54:                                               ; preds = %50
  %55 = load ptr, ptr %10, align 8
  store ptr %55, ptr %4, align 8
  store i32 1, ptr %12, align 4
  br label %64

56:                                               ; preds = %50
  %57 = load ptr, ptr %9, align 8
  %58 = call i32 @wtap_block_get_string_option_value(ptr noundef %57, i32 noundef 15, ptr noundef %10)
  %59 = icmp eq i32 %58, 0
  br i1 %59, label %60, label %62

60:                                               ; preds = %56
  %61 = load ptr, ptr %10, align 8
  store ptr %61, ptr %4, align 8
  store i32 1, ptr %12, align 4
  br label %64

62:                                               ; preds = %56
  br label %63

63:                                               ; preds = %62, %40
  store ptr @.str, ptr %4, align 8
  store i32 1, ptr %12, align 4
  br label %64

64:                                               ; preds = %63, %60, %54, %48
  call void @llvm.lifetime.end.p0(i64 4, ptr %11) #4
  call void @llvm.lifetime.end.p0(i64 8, ptr %10) #4
  call void @llvm.lifetime.end.p0(i64 8, ptr %9) #4
  call void @llvm.lifetime.end.p0(i64 8, ptr %8) #4
  %65 = load ptr, ptr %4, align 8
  ret ptr %65
}