; Function Attrs: null_pointer_is_valid sspstrong uwtable
define hidden ptr @cap_file_provider_get_interface_name(ptr noundef readonly captures(none) %0, i32 noundef %1, i32 noundef %2) local_unnamed_addr #0 {
  %4 = alloca ptr, align 8
  call void @llvm.lifetime.start.p0(i64 8, ptr nonnull %4) #5
  %5 = load ptr, ptr %0, align 8
  %6 = tail call ptr @wtap_file_get_idb_info(ptr noundef %5)
  %7 = load ptr, ptr %0, align 8
  %8 = tail call i32 @wtap_file_get_shb_global_interface_id(ptr noundef %7, i32 noundef %2, i32 noundef %1)
  %9 = load ptr, ptr %6, align 8
  %10 = getelementptr inbounds nuw i8, ptr %9, i64 8
  %11 = load i32, ptr %10, align 8
  %12 = icmp ult i32 %8, %11
  br i1 %12, label %13, label %.thread

.thread:                                          ; preds = %3
  tail call void @g_free(ptr noundef %6)
  br label %32

13:                                               ; preds = %3
  %14 = load ptr, ptr %9, align 8
  %15 = zext i32 %8 to i64
  %16 = getelementptr ptr, ptr %14, i64 %15
  %17 = load ptr, ptr %16, align 8
  tail call void @g_free(ptr noundef %6)
  %.not = icmp eq ptr %17, null
  br i1 %.not, label %32, label %18

18:                                               ; preds = %13
  %19 = call i32 @wtap_block_get_string_option_value(ptr noundef nonnull %17, i32 noundef 2, ptr noundef nonnull %4)
  %20 = icmp eq i32 %19, 0
  br i1 %20, label %21, label %23

21:                                               ; preds = %18
  %22 = load ptr, ptr %4, align 8
  br label %32

23:                                               ; preds = %18
  %24 = call i32 @wtap_block_get_string_option_value(ptr noundef nonnull %17, i32 noundef 3, ptr noundef nonnull %4)
  %25 = icmp eq i32 %24, 0
  br i1 %25, label %26, label %28

26:                                               ; preds = %23
  %27 = load ptr, ptr %4, align 8
  br label %32

28:                                               ; preds = %23
  %29 = call i32 @wtap_block_get_string_option_value(ptr noundef nonnull %17, i32 noundef 15, ptr noundef nonnull %4)
  %30 = icmp eq i32 %29, 0
  %31 = load ptr, ptr %4, align 8
  %spec.select = select i1 %30, ptr %31, ptr @.str
  br label %32

32:                                               ; preds = %.thread, %28, %13, %26, %21
  %.0 = phi ptr [ %22, %21 ], [ %27, %26 ], [ @.str, %13 ], [ %spec.select, %28 ], [ @.str, %.thread ]
  call void @llvm.lifetime.end.p0(i64 8, ptr nonnull %4) #5
  ret ptr %.0
}